ccopy_reg
_reconstructor
p0
(cneo4jrestclient.query
QuerySequence
p1
c__builtin__
object
p2
Ntp3
Rp4
(dp5
S'_types'
p6
(dp7
S'node'
p8
cneo4jrestclient.client
Node
p9
sS'path'
p10
cneo4jrestclient.client
Path
p11
sS'relationship'
p12
cneo4jrestclient.client
Relationship
p13
sS'position'
p14
cneo4jrestclient.client
Position
p15
ssS'stats'
p16
NsS'_order_by'
p17
NsS'_auth'
p18
(dp19
S'username'
p20
S'neo4j'
p21
sS'cert_file'
p22
NsS'password'
p23
S'VFiWfE72z3I8384Qd6LPT4QNH3So8YxI'
p24
sS'key_file'
p25
NsS'version'
p26
V3.0.0
p27
ssS'_skip'
p28
NsS'_elements_graph'
p29
NsS'q'
p30
VMATCH (u:User {name: "suzq22"})-[:WROTE]-(r:Review)-[:RATES]-(h:Hotel)-[:LOCATED_IN]->(p:Place {hash: 2704655808}) RETURN r,h
p31
sS'_cypher'
p32
Vhttp://covexo.com:7474/db/data/cypher
p33
sS'_limit'
p34
NsS'params'
p35
NsS'_elements'
p36
(lp37
(lp38
(dp39
Vtraverse
p40
Vhttp://covexo.com:7474/db/data/node/443096/traverse/{returnType}
p41
sVoutgoing_typed_relationships
p42
Vhttp://covexo.com:7474/db/data/node/443096/relationships/out/{-list|&|types}
p43
sVcreate_relationship
p44
Vhttp://covexo.com:7474/db/data/node/443096/relationships
p45
sVself
p46
Vhttp://covexo.com:7474/db/data/node/443096
p47
sVlabels
p48
Vhttp://covexo.com:7474/db/data/node/443096/labels
p49
sVall_typed_relationships
p50
Vhttp://covexo.com:7474/db/data/node/443096/relationships/all/{-list|&|types}
p51
sVpaged_traverse
p52
Vhttp://covexo.com:7474/db/data/node/443096/paged/traverse/{returnType}{?pageSize,leaseTime}
p53
sVoutgoing_relationships
p54
Vhttp://covexo.com:7474/db/data/node/443096/relationships/out
p55
sVall_relationships
p56
Vhttp://covexo.com:7474/db/data/node/443096/relationships/all
p57
sVincoming_typed_relationships
p58
Vhttp://covexo.com:7474/db/data/node/443096/relationships/in/{-list|&|types}
p59
sVincoming_relationships
p60
Vhttp://covexo.com:7474/db/data/node/443096/relationships/in
p61
sVproperty
p62
Vhttp://covexo.com:7474/db/data/node/443096/properties/{key}
p63
sVdata
p64
(dp65
VratingSleepQuality
p66
I-1
sVratingOverall
p67
I5
sVtitle
p68
V\u201cGreat hotel with wonderful staff\u201d
p69
sVtext
p70
VWe just returned from a 6-night stay at the K+K. We booked this hotel through our travel agency having read the reviews and were not disappointed. The location was great, the rue du Bac Metro stop was right outside the hotel. Check in was easy; the front desk staff let us see the room (since it was a smoking room) before we took it which was fine. The doorman even aired it out with air freshener spray. We had a double room on the fourth floor facing Blvd Raspail. Our room was a good size for a Parisian room was clean and modern; the bathroom was well proportioned with heated marble floor and a full bathtub. The bathroom was immaculate after maid service everyday. The Reception staff was not only great but fun (especially Jean Pierre). The internet in the lobby was easy to use. We did not ask the front desk for restaurant recommendations because we already had a list of places to go. We had breakfast included in our package (otherwise not have paid the 23 Euros) and always had a fresh array of fruit, croissants, bread, cold meats, cheeses, etc. There was never a morning where the food ran out and we got to breakfast pretty late each morning. The waiters were polite and all spoke English. The reviews of the Shell Minimart next door did not fail us. It was great; it sold water, wine (cheap prices), cookies, bread, etc all at good prices. The hotel is within a 10 to 15 minute walk of the Louvre, Orsay, and Rodin museums. Bring a small umbrella as we experienced light showers for a few minutes most of our days. The Chapon chocolate shop around the corner had the best chocolate we\u2019ve tasted. The bakery on the corner of Rue de Bellechase and St. Germain-des-Pres (near Orsay) was excellent as well. Paris was just wonderful and our hotel stay at the K & K Cayre helped to make this a positive experience. Overall the K+K was a very pleasant hotel in a good location and we would go back again!
p71
sVsummaryService
p72
V
p73
sVratingLocation
p74
I-1
sVratingService
p75
I5
sVratingRooms
p76
I5
sVsummarySleepQuality
p77
g73
sVsummaryRooms
p78
g73
sVratingValue
p79
I5
sVratingCleanliness
p80
I5
sVdate
p81
I1149199200
sVsummaryCleanliness
p82
g73
sVsummaryLocation
p83
g73
sVid
p84
VUR5293760
p85
sVsummaryValue
p86
g73
ssVproperties
p87
Vhttp://covexo.com:7474/db/data/node/443096/properties
p88
sVmetadata
p89
(dp90
Vlabels
p91
(lp92
VReview
p93
asVid
p94
I443096
ssa(dp95
Vtraverse
p96
Vhttp://covexo.com:7474/db/data/node/432792/traverse/{returnType}
p97
sVoutgoing_typed_relationships
p98
Vhttp://covexo.com:7474/db/data/node/432792/relationships/out/{-list|&|types}
p99
sVcreate_relationship
p100
Vhttp://covexo.com:7474/db/data/node/432792/relationships
p101
sVself
p102
Vhttp://covexo.com:7474/db/data/node/432792
p103
sVlabels
p104
Vhttp://covexo.com:7474/db/data/node/432792/labels
p105
sVall_typed_relationships
p106
Vhttp://covexo.com:7474/db/data/node/432792/relationships/all/{-list|&|types}
p107
sVpaged_traverse
p108
Vhttp://covexo.com:7474/db/data/node/432792/paged/traverse/{returnType}{?pageSize,leaseTime}
p109
sVoutgoing_relationships
p110
Vhttp://covexo.com:7474/db/data/node/432792/relationships/out
p111
sVall_relationships
p112
Vhttp://covexo.com:7474/db/data/node/432792/relationships/all
p113
sVincoming_typed_relationships
p114
Vhttp://covexo.com:7474/db/data/node/432792/relationships/in/{-list|&|types}
p115
sVincoming_relationships
p116
Vhttp://covexo.com:7474/db/data/node/432792/relationships/in
p117
sVproperty
p118
Vhttp://covexo.com:7474/db/data/node/432792/properties/{key}
p119
sVdata
p120
(dp121
VpriceUpperLimit
p122
V547
p123
sVpriceLowerLimit
p124
V279
p125
sVname
p126
VK+K Hotel Cayre
p127
sVurl
p128
V/ShowUserReviews-g187147-d207663-Reviews-K_K_Hotel_Cayre-Paris_Ile_de_France.html
p129
sVclass
p130
I4
sVstreet
p131
g73
sVpostalCode
p132
V75007
p133
sVid
p134
V2514798
p135
sVimgUrl
p136
Vhttp://media-cdn.tripadvisor.com/media/ProviderThumbnails/dirs/67/de/67de9dc0a72355b33f3e767c5db1eafa7large.jpg
p137
ssVproperties
p138
Vhttp://covexo.com:7474/db/data/node/432792/properties
p139
sVmetadata
p140
(dp141
Vlabels
p142
(lp143
VHotel
p144
asVid
p145
I432792
ssaasS'_elements_row'
p146
NsS'_data_contents'
p147
NsS'_returns'
p148
S'raw'
p149
sS'columns'
p150
(lp151
Vr
p152
aVh
p153
asS'_return_single_rows'
p154
I00
sb.